target datalayout = "e-m:e-p270:32:32-p271:32:32-p272:64:64-i64:64-i128:128-f80:128-n8:16:32:64-S128"
target triple = "x86_64-unknown-linux-gnu"

%class.btCollisionWorld = type <{ ptr, %class.btAlignedObjectArray, ptr, %struct.btDispatcherInfo, ptr, ptr, i8, [7 x i8] }>
%class.btAlignedObjectArray = type <{ %class.btAlignedAllocator, [3 x i8], i32, i32, [4 x i8], ptr, i8, [7 x i8] }>
%class.btAlignedAllocator = type { i8 }
%struct.btDispatcherInfo = type <{ float, i32, i32, float, i8, [7 x i8], ptr, i8, i8, i8, i8, float, i8, [3 x i8], float, i8, [7 x i8] }>
%class.btVector3 = type { [4 x float] }
%class.btManifoldPoint = type <{ %class.btVector3, %class.btVector3, %class.btVector3, %class.btVector3, %class.btVector3, float, float, float, float, float, i32, i32, i32, i32, [4 x i8], ptr, i32, float, float, float, float, float, float, %union.anon.35, %union.anon.36, float, i32, %class.btVector3, %class.btVector3, [4 x i8] }>
%union.anon.35 = type { float }
%union.anon.36 = type { float }
%class.btPersistentManifold = type { %struct.btTypedObject, [4 x i8], [4 x %class.btManifoldPoint], ptr, ptr, i32, float, float, i32, i32, i32 }
%struct.btTypedObject = type { i32 }
%class.btChunk = type { i32, i32, ptr, i32, i32 }

; Function Attrs: mustprogress nounwind uwtable
define linkonce_odr dso_local noundef i32 @_ZNK20btPersistentManifold14getNumContactsEv(ptr noundef nonnull align 8 dereferenceable(880) %this) #1 comdat align 2 {
entry:
  %this.addr = alloca ptr, align 8
  store ptr %this, ptr %this.addr, align 8
  %this1 = load ptr, ptr %this.addr, align 8
  %m_cachedPoints = getelementptr inbounds %class.btPersistentManifold, ptr %this1, i32 0, i32 5
  %0 = load i32, ptr %m_cachedPoints, align 8
  ret i32 %0
}

; Function Attrs: mustprogress nounwind uwtable
define linkonce_odr dso_local noundef ptr @_ZN16btCollisionWorld13getDispatcherEv(ptr noundef nonnull align 8 dereferenceable(121) %this) #1 comdat align 2 {
entry:
  %this.addr = alloca ptr, align 8
  store ptr %this, ptr %this.addr, align 8
  %this1 = load ptr, ptr %this.addr, align 8
  %m_dispatcher1 = getelementptr inbounds %class.btCollisionWorld, ptr %this1, i32 0, i32 2
  %0 = load ptr, ptr %m_dispatcher1, align 8
  ret ptr %0
}

; Function Attrs: mustprogress uwtable
define dso_local void @_ZN16btCollisionWorld25serializeContactManifoldsEP12btSerializer(ptr noundef nonnull align 8 dereferenceable(121) %this, ptr noundef %serializer) #2 align 2 {
entry:
  %this.addr = alloca ptr, align 8
  %serializer.addr = alloca ptr, align 8
  %numManifolds = alloca i32, align 4
  %i = alloca i32, align 4
  %manifold = alloca ptr, align 8
  %chunk = alloca ptr, align 8
  %structType = alloca ptr, align 8
  store ptr %this, ptr %this.addr, align 8
  store ptr %serializer, ptr %serializer.addr, align 8
  %this1 = load ptr, ptr %this.addr, align 8
  %0 = load ptr, ptr %serializer.addr, align 8
  %vtable = load ptr, ptr %0, align 8
  %vfn = getelementptr inbounds ptr, ptr %vtable, i64 13
  %1 = load ptr, ptr %vfn, align 8
  %call = call noundef i32 %1(ptr noundef nonnull align 8 dereferenceable(8) %0)
  %and = and i32 %call, 8
  %tobool = icmp ne i32 %and, 0
  br i1 %tobool, label %if.then, label %if.end20

if.then:                                          ; preds = %entry
  %call2 = call noundef ptr @_ZN16btCollisionWorld13getDispatcherEv(ptr noundef nonnull align 8 dereferenceable(121) %this1)
  %vtable3 = load ptr, ptr %call2, align 8
  %vfn4 = getelementptr inbounds ptr, ptr %vtable3, i64 9
  %2 = load ptr, ptr %vfn4, align 8
  %call5 = call noundef i32 %2(ptr noundef nonnull align 8 dereferenceable(8) %call2)
  store i32 %call5, ptr %numManifolds, align 4
  store i32 0, ptr %i, align 4
  br label %for.cond

for.cond:                                         ; preds = %for.inc, %if.then
  %3 = load i32, ptr %i, align 4
  %4 = load i32, ptr %numManifolds, align 4
  %cmp = icmp slt i32 %3, %4
  br i1 %cmp, label %for.body, label %for.end

for.body:                                         ; preds = %for.cond
  %call6 = call noundef ptr @_ZN16btCollisionWorld13getDispatcherEv(ptr noundef nonnull align 8 dereferenceable(121) %this1)
  %vtable7 = load ptr, ptr %call6, align 8
  %vfn8 = getelementptr inbounds ptr, ptr %vtable7, i64 11
  %5 = load ptr, ptr %vfn8, align 8
  %call9 = call noundef ptr %5(ptr noundef nonnull align 8 dereferenceable(8) %call6)
  %6 = load i32, ptr %i, align 4
  %idxprom = sext i32 %6 to i64
  %arrayidx = getelementptr inbounds ptr, ptr %call9, i64 %idxprom
  %7 = load ptr, ptr %arrayidx, align 8
  store ptr %7, ptr %manifold, align 8
  %8 = load ptr, ptr %manifold, align 8
  %call10 = call noundef i32 @_ZNK20btPersistentManifold14getNumContactsEv(ptr noundef nonnull align 8 dereferenceable(880) %8)
  %cmp11 = icmp eq i32 %call10, 0
  br i1 %cmp11, label %if.then12, label %if.end

if.then12:                                        ; preds = %for.body
  br label %for.inc

if.end:                                           ; preds = %for.body
  %9 = load ptr, ptr %serializer.addr, align 8
  %10 = load ptr, ptr %manifold, align 8
  %call13 = call noundef i32 @_ZNK20btPersistentManifold28calculateSerializeBufferSizeEv(ptr noundef nonnull align 8 dereferenceable(880) %10)
  %conv = sext i32 %call13 to i64
  %vtable14 = load ptr, ptr %9, align 8
  %vfn15 = getelementptr inbounds ptr, ptr %vtable14, i64 4
  %11 = load ptr, ptr %vfn15, align 8
  %call16 = call noundef ptr %11(ptr noundef nonnull align 8 dereferenceable(8) %9, i64 noundef %conv, i32 noundef 1)
  store ptr %call16, ptr %chunk, align 8
  %12 = load ptr, ptr %manifold, align 8
  %13 = load ptr, ptr %manifold, align 8
  %14 = load ptr, ptr %chunk, align 8
  %m_oldPtr = getelementptr inbounds %class.btChunk, ptr %14, i32 0, i32 2
  %15 = load ptr, ptr %m_oldPtr, align 8
  %16 = load ptr, ptr %serializer.addr, align 8
  %call17 = call noundef ptr @_ZNK20btPersistentManifold9serializeEPKS_PvP12btSerializer(ptr noundef nonnull align 8 dereferenceable(880) %12, ptr noundef %13, ptr noundef %15, ptr noundef %16)
  store ptr %call17, ptr %structType, align 8
  %17 = load ptr, ptr %serializer.addr, align 8
  %18 = load ptr, ptr %chunk, align 8
  %19 = load ptr, ptr %structType, align 8
  %20 = load ptr, ptr %manifold, align 8
  %vtable18 = load ptr, ptr %17, align 8
  %vfn19 = getelementptr inbounds ptr, ptr %vtable18, i64 5
  %21 = load ptr, ptr %vfn19, align 8
  call void %21(ptr noundef nonnull align 8 dereferenceable(8) %17, ptr noundef %18, ptr noundef %19, i32 noundef 1414418243, ptr noundef %20)
  br label %for.inc

for.inc:                                          ; preds = %if.end, %if.then12
  %22 = load i32, ptr %i, align 4
  %inc = add nsw i32 %22, 1
  store i32 %inc, ptr %i, align 4
  br label %for.cond, !llvm.loop !22

for.end:                                          ; preds = %for.cond
  br label %if.end20

if.end20:                                         ; preds = %for.end, %entry
  ret void
}