; Function Attrs: mustprogress uwtable
define dso_local void @_ZN16btCollisionWorld25serializeContactManifoldsEP12btSerializer(ptr nocapture noundef nonnull readonly align 8 dereferenceable(121) %this, ptr noundef %serializer) local_unnamed_addr #4 align 2 {
entry:
  %vtable = load ptr, ptr %serializer, align 8
  %vfn = getelementptr inbounds i8, ptr %vtable, i64 104
  %0 = load ptr, ptr %vfn, align 8
  %call = tail call noundef i32 %0(ptr noundef nonnull align 8 dereferenceable(8) %serializer)
  %and = and i32 %call, 8
  %tobool.not = icmp eq i32 %and, 0
  br i1 %tobool.not, label %if.end20, label %if.then

if.then:                                          ; preds = %entry
  %m_dispatcher1.i = getelementptr inbounds i8, ptr %this, i64 40
  %1 = load ptr, ptr %m_dispatcher1.i, align 8
  %vtable3 = load ptr, ptr %1, align 8
  %vfn4 = getelementptr inbounds i8, ptr %vtable3, i64 72
  %2 = load ptr, ptr %vfn4, align 8
  %call5 = tail call noundef i32 %2(ptr noundef nonnull align 8 dereferenceable(8) %1)
  %cmp12 = icmp sgt i32 %call5, 0
  br i1 %cmp12, label %for.body.preheader, label %if.end20

for.body.preheader:                               ; preds = %if.then
  %wide.trip.count = zext nneg i32 %call5 to i64
  br label %for.body

for.body:                                         ; preds = %for.body.preheader, %for.inc
  %indvars.iv = phi i64 [ 0, %for.body.preheader ], [ %indvars.iv.next, %for.inc ]
  %3 = load ptr, ptr %m_dispatcher1.i, align 8
  %vtable7 = load ptr, ptr %3, align 8
  %vfn8 = getelementptr inbounds i8, ptr %vtable7, i64 88
  %4 = load ptr, ptr %vfn8, align 8
  %call9 = tail call noundef ptr %4(ptr noundef nonnull align 8 dereferenceable(8) %3)
  %arrayidx = getelementptr inbounds ptr, ptr %call9, i64 %indvars.iv
  %5 = load ptr, ptr %arrayidx, align 8
  %m_cachedPoints.i = getelementptr inbounds i8, ptr %5, i64 856
  %6 = load i32, ptr %m_cachedPoints.i, align 8
  %cmp11 = icmp eq i32 %6, 0
  br i1 %cmp11, label %for.inc, label %if.end

if.end:                                           ; preds = %for.body
  %call13 = tail call noundef i32 @_ZNK20btPersistentManifold28calculateSerializeBufferSizeEv(ptr noundef nonnull align 8 dereferenceable(880) %5)
  %conv = sext i32 %call13 to i64
  %vtable14 = load ptr, ptr %serializer, align 8
  %vfn15 = getelementptr inbounds i8, ptr %vtable14, i64 32
  %7 = load ptr, ptr %vfn15, align 8
  %call16 = tail call noundef ptr %7(ptr noundef nonnull align 8 dereferenceable(8) %serializer, i64 noundef %conv, i32 noundef 1)
  %m_oldPtr = getelementptr inbounds i8, ptr %call16, i64 8
  %8 = load ptr, ptr %m_oldPtr, align 8
  %call17 = tail call noundef ptr @_ZNK20btPersistentManifold9serializeEPKS_PvP12btSerializer(ptr noundef nonnull align 8 dereferenceable(880) %5, ptr noundef nonnull %5, ptr noundef %8, ptr noundef nonnull %serializer)
  %vtable18 = load ptr, ptr %serializer, align 8
  %vfn19 = getelementptr inbounds i8, ptr %vtable18, i64 40
  %9 = load ptr, ptr %vfn19, align 8
  tail call void %9(ptr noundef nonnull align 8 dereferenceable(8) %serializer, ptr noundef %call16, ptr noundef %call17, i32 noundef 1414418243, ptr noundef nonnull %5)
  br label %for.inc

for.inc:                                          ; preds = %for.body, %if.end
  %indvars.iv.next = add nuw nsw i64 %indvars.iv, 1
  %exitcond.not = icmp eq i64 %indvars.iv.next, %wide.trip.count
  br i1 %exitcond.not, label %if.end20, label %for.body, !llvm.loop !99

if.end20:                                         ; preds = %for.inc, %if.then, %entry
  ret void
}